; Function Attrs: mustprogress uwtable
define hidden void @_ZN2cv15triangleWeightsEv(ptr dead_on_unwind noalias nonnull writable sret(%"class.cv::Mat") align 8 %0) local_unnamed_addr #0 personality ptr @__gxx_personality_v0 {
  tail call void @_ZN2cv3MatC1Eiii(ptr noundef nonnull align 8 dereferenceable(96) %0, i32 noundef 256, i32 noundef 1, i32 noundef 5)
  %2 = getelementptr inbounds i8, ptr %0, i64 64
  %3 = getelementptr inbounds i8, ptr %0, i64 12
  %4 = getelementptr inbounds i8, ptr %0, i64 16
  %5 = getelementptr inbounds i8, ptr %0, i64 72
  br label %6

6:                                                ; preds = %1, %_ZN2cv3Mat2atIfEERT_i.exit
  %indvars.iv = phi i64 [ 0, %1 ], [ %indvars.iv.next, %_ZN2cv3Mat2atIfEERT_i.exit ]
  %7 = icmp ult i64 %indvars.iv, 128
  %8 = trunc nuw nsw i64 %indvars.iv to i32
  %9 = uitofp nneg i32 %8 to float
  %10 = fadd float %9, 1.000000e+00
  %11 = trunc i64 %indvars.iv to i32
  %12 = sub i32 256, %11
  %13 = uitofp nneg i32 %12 to float
  %14 = select i1 %7, float %10, float %13
  %15 = load i32, ptr %0, align 8
  %16 = and i32 %15, 16384
  %.not.i = icmp eq i32 %16, 0
  br i1 %.not.i, label %17, label %21

17:                                               ; preds = %6
  %18 = load ptr, ptr %2, align 8
  %19 = load i32, ptr %18, align 4
  %20 = icmp eq i32 %19, 1
  br i1 %20, label %21, label %24

21:                                               ; preds = %17, %6
  %22 = load ptr, ptr %4, align 8
  %23 = getelementptr inbounds float, ptr %22, i64 %indvars.iv
  br label %_ZN2cv3Mat2atIfEERT_i.exit

24:                                               ; preds = %17
  %25 = getelementptr inbounds i8, ptr %18, i64 4
  %26 = load i32, ptr %25, align 4
  %27 = icmp eq i32 %26, 1
  br i1 %27, label %28, label %34

28:                                               ; preds = %24
  %29 = load ptr, ptr %4, align 8
  %30 = load ptr, ptr %5, align 8
  %31 = load i64, ptr %30, align 8
  %32 = mul i64 %31, %indvars.iv
  %33 = getelementptr inbounds i8, ptr %29, i64 %32
  br label %_ZN2cv3Mat2atIfEERT_i.exit

34:                                               ; preds = %24
  %35 = load i32, ptr %3, align 4
  %36 = sdiv i32 %8, %35
  %37 = mul nsw i32 %36, %35
  %.recomposed = srem i32 %8, %35
  %38 = load ptr, ptr %4, align 8
  %39 = load ptr, ptr %5, align 8
  %40 = load i64, ptr %39, align 8
  %41 = sext i32 %36 to i64
  %42 = mul i64 %40, %41
  %43 = getelementptr inbounds i8, ptr %38, i64 %42
  %44 = sext i32 %.recomposed to i64
  %45 = getelementptr inbounds float, ptr %43, i64 %44
  br label %_ZN2cv3Mat2atIfEERT_i.exit

_ZN2cv3Mat2atIfEERT_i.exit:                       ; preds = %34, %28, %21
  %.0.i = phi ptr [ %23, %21 ], [ %33, %28 ], [ %45, %34 ]
  store float %14, ptr %.0.i, align 4
  %indvars.iv.next = add nuw nsw i64 %indvars.iv, 1
  %exitcond.not = icmp eq i64 %indvars.iv.next, 256
  br i1 %exitcond.not, label %46, label %6, !llvm.loop !6

46:                                               ; preds = %_ZN2cv3Mat2atIfEERT_i.exit
  ret void
}